(lp1
(lp2
c__main__
EllipseDrawingObject
p3
a(lp4
I71
aI16
aI35
aI26
aI0
aI0
aI0
aI215
aI253
aI254
aI2
aaa(lp5
c__main__
PolygonDrawingObject
p6
a(lp7
I278
aI33
aI79
aI55
aI0
aI0
aI0
aI215
aI253
aI254
aI2
a(lp8
(I59
I55
tp9
a(I79
I0
tp10
a(I0
I25
tp11
aaaa(lp12
g6
a(lp13
I132
aI163
aI258
aI90
aI0
aI0
aI0
aI215
aI253
aI254
aI2
a(lp14
(I139
I79
tp15
a(I258
I81
tp16
a(I258
I20
tp17
a(I140
I21
tp18
a(I140
I21
tp19
a(I0
I90
tp20
a(I16
I0
tp21
a(I60
I89
tp22
a(I60
I89
tp23
aaaa(lp24
c__main__
ScribbleDrawingObject
p25
a(lp26
I283
aI42
aI125
aI19
aI0
aI0
aI0
aI215
aI253
aI254
aI2
a(lp27
(I0
I6
tp28
a(I3
I6
tp29
a(I7
I6
tp30
a(I9
I6
tp31
a(I13
I6
tp32
a(I19
I6
tp33
a(I24
I6
tp34
a(I29
I6
tp35
a(I35
I6
tp36
a(I36
I7
tp37
a(I37
I7
tp38
a(I39
I7
tp39
a(I40
I8
tp40
a(I41
I9
tp41
a(I43
I10
tp42
a(I43
I11
tp43
a(I43
I12
tp44
a(I43
I13
tp45
a(I43
I12
tp46
a(I43
I11
tp47
a(I44
I11
tp48
a(I44
I10
tp49
a(I45
I10
tp50
a(I47
I10
tp51
a(I47
I9
tp52
a(I48
I9
tp53
a(I49
I9
tp54
a(I51
I9
tp55
a(I52
I9
tp56
a(I53
I9
tp57
a(I55
I9
tp58
a(I56
I8
tp59
a(I57
I8
tp60
a(I59
I8
tp61
a(I60
I7
tp62
a(I61
I7
tp63
a(I63
I7
tp64
a(I64
I7
tp65
a(I65
I7
tp66
a(I67
I7
tp67
a(I68
I7
tp68
a(I69
I7
tp69
a(I69
I9
tp70
a(I71
I10
tp71
a(I72
I11
tp72
a(I72
I12
tp73
a(I73
I12
tp74
a(I75
I12
tp75
a(I76
I12
tp76
a(I77
I12
tp77
a(I79
I12
tp78
a(I80
I12
tp79
a(I81
I12
tp80
a(I83
I12
tp81
a(I84
I12
tp82
a(I85
I12
tp83
a(I87
I12
tp84
a(I88
I12
tp85
a(I89
I12
tp86
a(I89
I11
tp87
a(I89
I10
tp88
a(I89
I8
tp89
a(I89
I6
tp90
a(I89
I4
tp91
a(I89
I3
tp92
a(I89
I2
tp93
a(I89
I1
tp94
a(I89
I0
tp95
a(I89
I1
tp96
a(I89
I2
tp97
a(I89
I4
tp98
a(I89
I5
tp99
a(I91
I6
tp100
a(I91
I7
tp101
a(I91
I8
tp102
a(I92
I9
tp103
a(I92
I10
tp104
a(I93
I10
tp105
a(I95
I12
tp106
a(I96
I13
tp107
a(I97
I13
tp108
a(I99
I13
tp109
a(I100
I13
tp110
a(I101
I13
tp111
a(I103
I13
tp112
a(I104
I12
tp113
a(I105
I11
tp114
a(I105
I10
tp115
a(I107
I9
tp116
a(I108
I9
tp117
a(I108
I8
tp118
a(I109
I8
tp119
a(I111
I8
tp120
a(I112
I8
tp121
a(I113
I8
tp122
a(I115
I8
tp123
a(I115
I9
tp124
a(I116
I9
tp125
a(I116
I10
tp126
a(I116
I11
tp127
a(I117
I11
tp128
a(I119
I11
tp129
a(I120
I11
tp130
a(I120
I12
tp131
a(I120
I13
tp132
a(I121
I13
tp133
a(I121
I14
tp134
a(I121
I15
tp135
a(I123
I15
tp136
a(I123
I16
tp137
a(I124
I17
tp138
a(I124
I18
tp139
a(I125
I18
tp140
a(I125
I19
tp141
aaaa(lp142
c__main__
LineDrawingObject
p143
a(lp144
I306
aI116
aI54
aI43
aI0
aI0
aI0
aI215
aI253
aI254
aI2
aI0
aI0
aI54
aI43
aaa(lp145
c__main__
RectDrawingObject
p146
a(lp147
I39
aI57
aI257
aI163
aI0
aI0
aI0
aI215
aI253
aI254
aI2
aaa.